; Function Attrs: mustprogress ssp uwtable
define noundef zeroext i1 @_ZN6open3d4core3nns21NearestNeighborSearch8KnnIndexEv(ptr noundef nonnull align 8 dereferenceable(216) %0) local_unnamed_addr #4 align 2 personality ptr @__gxx_personality_v0 {
  %2 = getelementptr inbounds nuw i8, ptr %0, i64 24
  %3 = load ptr, ptr %2, align 8, !tbaa !4
  %4 = getelementptr inbounds nuw i8, ptr %3, i64 16
  %5 = load ptr, ptr %4, align 8
  %6 = tail call i64 %5(ptr noundef nonnull align 8 dereferenceable(8) %2)
  %7 = and i64 %6, 4294967295
  %8 = icmp eq i64 %7, 1
  br i1 %8, label %9, label %10

9:                                                ; preds = %1
  tail call void @_ZN6open3d7utility6Logger9LogError_IJEEEvPKciS4_S4_DpOT_(ptr noundef nonnull @.str, i32 noundef 31, ptr noundef nonnull @__PRETTY_FUNCTION__._ZN6open3d4core3nns21NearestNeighborSearch8KnnIndexEv, ptr noundef nonnull @.str.1) #17
  unreachable

10:                                               ; preds = %1
  %11 = tail call noalias noundef nonnull dereferenceable(208) ptr @_Znwm(i64 noundef 208) #15
  invoke void @_ZN6open3d4core3nns14NanoFlannIndexC1Ev(ptr noundef nonnull align 8 dereferenceable(208) %11)
          to label %12 unwind label %17

12:                                               ; preds = %10
  %13 = load ptr, ptr %0, align 8, !tbaa !25
  store ptr %11, ptr %0, align 8, !tbaa !25
  %.not.i.i.i = icmp eq ptr %13, null
  br i1 %.not.i.i.i, label %_ZN6open3d4core3nns21NearestNeighborSearch8SetIndexEv.exit, label %_ZNKSt14default_deleteIN6open3d4core3nns14NanoFlannIndexEEclEPS3_.exit.i.i.i

_ZNKSt14default_deleteIN6open3d4core3nns14NanoFlannIndexEEclEPS3_.exit.i.i.i: ; preds = %12
  %14 = load ptr, ptr %13, align 8, !tbaa !4
  %15 = getelementptr inbounds nuw i8, ptr %14, i64 8
  %16 = load ptr, ptr %15, align 8
  tail call void %16(ptr noundef nonnull align 8 dereferenceable(208) %13) #14
  %.pre.i = load ptr, ptr %0, align 8, !tbaa !25
  br label %_ZN6open3d4core3nns21NearestNeighborSearch8SetIndexEv.exit

17:                                               ; preds = %10
  %18 = landingpad { ptr, i32 }
          cleanup
  tail call void @_ZdlPvm(ptr noundef nonnull %11, i64 noundef 208) #16
  resume { ptr, i32 } %18

_ZN6open3d4core3nns21NearestNeighborSearch8SetIndexEv.exit: ; preds = %12, %_ZNKSt14default_deleteIN6open3d4core3nns14NanoFlannIndexEEclEPS3_.exit.i.i.i
  %19 = phi ptr [ %11, %12 ], [ %.pre.i, %_ZNKSt14default_deleteIN6open3d4core3nns14NanoFlannIndexEEclEPS3_.exit.i.i.i ]
  %20 = getelementptr inbounds nuw i8, ptr %0, i64 184
  %21 = load ptr, ptr %19, align 8, !tbaa !4
  %22 = getelementptr inbounds nuw i8, ptr %21, i64 16
  %23 = load ptr, ptr %22, align 8
  %24 = tail call noundef zeroext i1 %23(ptr noundef nonnull align 8 dereferenceable(208) %19, ptr noundef nonnull align 8 dereferenceable(160) %2, ptr noundef nonnull align 8 dereferenceable(32) %20)
  ret i1 %24
}